target datalayout = "e-m:e-p270:32:32-p271:32:32-p272:64:64-i64:64-i128:128-f80:128-n8:16:32:64-S128"
target triple = "x86_64-pc-linux-gnu"

%struct.dt_imageio_jpeg_error_mgr = type { %struct.jpeg_error_mgr, [1 x %struct.__jmp_buf_tag] }
%struct.jpeg_error_mgr = type { ptr, ptr, ptr, ptr, ptr, i32, %union.anon, i32, i64, ptr, i32, ptr, i32, i32 }
%union.anon = type { [8 x i32], [48 x i8] }
%struct.__jmp_buf_tag = type { [8 x i64], i32, %struct.__sigset_t }
%struct.__sigset_t = type { [16 x i64] }
%struct.dt_imageio_jpeg_t = type { i32, i32, %struct.jpeg_source_mgr, %struct.jpeg_destination_mgr, %struct.jpeg_decompress_struct, %struct.jpeg_compress_struct, ptr }
%struct.jpeg_source_mgr = type { ptr, i64, ptr, ptr, ptr, ptr, ptr }
%struct.jpeg_destination_mgr = type { ptr, i64, ptr, ptr, ptr }
%struct.jpeg_decompress_struct = type { ptr, ptr, ptr, ptr, i32, i32, ptr, i32, i32, i32, i32, i32, i32, i32, double, i32, i32, i32, i32, i32, i32, i32, i32, i32, i32, i32, i32, i32, i32, i32, i32, i32, i32, ptr, i32, i32, i32, i32, i32, ptr, [4 x ptr], [4 x ptr], [4 x ptr], i32, ptr, i32, i32, i32, [16 x i8], [16 x i8], [16 x i8], i32, i32, i8, i8, i8, i16, i16, i32, i8, i32, ptr, i32, i32, i32, i32, i32, ptr, i32, [4 x ptr], i32, i32, i32, [10 x i32], i32, i32, i32, i32, i32, ptr, i32, i32, ptr, ptr, ptr, ptr, ptr, ptr, ptr, ptr, ptr, ptr, ptr }
%struct.jpeg_compress_struct = type { ptr, ptr, ptr, ptr, i32, i32, ptr, i32, i32, i32, i32, double, i32, i32, i32, i32, i32, i32, i32, ptr, [4 x ptr], [4 x i32], [4 x ptr], [4 x ptr], [16 x i8], [16 x i8], [16 x i8], i32, ptr, i32, i32, i32, i32, i32, i32, i32, i32, i32, i32, i8, i8, i8, i16, i16, i32, i32, i32, i32, i32, i32, i32, i32, i32, [4 x ptr], i32, i32, i32, [10 x i32], i32, i32, i32, i32, i32, ptr, i32, ptr, ptr, ptr, ptr, ptr, ptr, ptr, ptr, ptr, ptr, i32 }

@.str.2 = private unnamed_addr constant [3 x i8] c"rb\00", align 1

; Function Attrs: nounwind uwtable
define internal void @setup_read_icc_profile(ptr noundef %0) #0 {
  %2 = alloca ptr, align 8
  store ptr %0, ptr %2, align 8, !tbaa !70
  %3 = load ptr, ptr %2, align 8, !tbaa !70
  call void @jpeg_save_markers(ptr noundef %3, i32 noundef 226, i32 noundef 65535)
  ret void
}

; Function Attrs: nounwind uwtable
define internal void @setup_read_exif(ptr noundef %0) #0 {
  %2 = alloca ptr, align 8
  store ptr %0, ptr %2, align 8, !tbaa !70
  %3 = load ptr, ptr %2, align 8, !tbaa !70
  call void @jpeg_save_markers(ptr noundef %3, i32 noundef 225, i32 noundef 65535)
  ret void
}

; Function Attrs: nounwind uwtable
define i32 @dt_imageio_jpeg_read_header(ptr noundef %0, ptr noundef %1) #0 {
  %3 = alloca i32, align 4
  %4 = alloca ptr, align 8
  %5 = alloca ptr, align 8
  %6 = alloca %struct.dt_imageio_jpeg_error_mgr, align 8
  %7 = alloca i32, align 4
  store ptr %0, ptr %4, align 8, !tbaa !82
  store ptr %1, ptr %5, align 8, !tbaa !12
  %8 = load ptr, ptr %4, align 8, !tbaa !82
  %9 = call noalias ptr @fopen(ptr noundef %8, ptr noundef @.str.2)
  %10 = load ptr, ptr %5, align 8, !tbaa !12
  %11 = getelementptr inbounds nuw %struct.dt_imageio_jpeg_t, ptr %10, i32 0, i32 6
  store ptr %9, ptr %11, align 8, !tbaa !143
  %12 = load ptr, ptr %5, align 8, !tbaa !12
  %13 = getelementptr inbounds nuw %struct.dt_imageio_jpeg_t, ptr %12, i32 0, i32 6
  %14 = load ptr, ptr %13, align 8, !tbaa !143
  %15 = icmp ne ptr %14, null
  br i1 %15, label %17, label %16

16:                                               ; preds = %2
  store i32 1, ptr %3, align 4
  br label %70

17:                                               ; preds = %2
  call void @llvm.lifetime.start.p0(i64 368, ptr %6) #9
  %18 = getelementptr inbounds nuw %struct.dt_imageio_jpeg_error_mgr, ptr %6, i32 0, i32 0
  %19 = call ptr @jpeg_std_error(ptr noundef %18)
  %20 = load ptr, ptr %5, align 8, !tbaa !12
  %21 = getelementptr inbounds nuw %struct.dt_imageio_jpeg_t, ptr %20, i32 0, i32 4
  %22 = getelementptr inbounds nuw %struct.jpeg_decompress_struct, ptr %21, i32 0, i32 0
  store ptr %19, ptr %22, align 8, !tbaa !59
  %23 = getelementptr inbounds nuw %struct.dt_imageio_jpeg_error_mgr, ptr %6, i32 0, i32 0
  %24 = getelementptr inbounds nuw %struct.jpeg_error_mgr, ptr %23, i32 0, i32 0
  store ptr @dt_imageio_jpeg_error_exit, ptr %24, align 8, !tbaa !60
  %25 = getelementptr inbounds nuw %struct.dt_imageio_jpeg_error_mgr, ptr %6, i32 0, i32 1
  %26 = getelementptr inbounds [1 x %struct.__jmp_buf_tag], ptr %25, i64 0, i64 0
  %27 = call i32 @_setjmp(ptr noundef %26) #10
  %28 = icmp ne i32 %27, 0
  br i1 %28, label %29, label %36

29:                                               ; preds = %17
  %30 = load ptr, ptr %5, align 8, !tbaa !12
  %31 = getelementptr inbounds nuw %struct.dt_imageio_jpeg_t, ptr %30, i32 0, i32 4
  call void @jpeg_destroy_decompress(ptr noundef %31)
  %32 = load ptr, ptr %5, align 8, !tbaa !12
  %33 = getelementptr inbounds nuw %struct.dt_imageio_jpeg_t, ptr %32, i32 0, i32 6
  %34 = load ptr, ptr %33, align 8, !tbaa !143
  %35 = call i32 @fclose(ptr noundef %34)
  store i32 1, ptr %3, align 4
  store i32 1, ptr %7, align 4
  br label %69

36:                                               ; preds = %17
  %37 = load ptr, ptr %5, align 8, !tbaa !12
  %38 = getelementptr inbounds nuw %struct.dt_imageio_jpeg_t, ptr %37, i32 0, i32 4
  call void @jpeg_CreateDecompress(ptr noundef %38, i32 noundef 80, i64 noundef 656)
  %39 = load ptr, ptr %5, align 8, !tbaa !12
  %40 = getelementptr inbounds nuw %struct.dt_imageio_jpeg_t, ptr %39, i32 0, i32 4
  %41 = load ptr, ptr %5, align 8, !tbaa !12
  %42 = getelementptr inbounds nuw %struct.dt_imageio_jpeg_t, ptr %41, i32 0, i32 6
  %43 = load ptr, ptr %42, align 8, !tbaa !143
  call void @jpeg_stdio_src(ptr noundef %40, ptr noundef %43)
  %44 = load ptr, ptr %5, align 8, !tbaa !12
  %45 = getelementptr inbounds nuw %struct.dt_imageio_jpeg_t, ptr %44, i32 0, i32 4
  call void @setup_read_exif(ptr noundef %45)
  %46 = load ptr, ptr %5, align 8, !tbaa !12
  %47 = getelementptr inbounds nuw %struct.dt_imageio_jpeg_t, ptr %46, i32 0, i32 4
  call void @setup_read_icc_profile(ptr noundef %47)
  %48 = load ptr, ptr %5, align 8, !tbaa !12
  %49 = getelementptr inbounds nuw %struct.dt_imageio_jpeg_t, ptr %48, i32 0, i32 4
  %50 = call i32 @jpeg_read_header(ptr noundef %49, i32 noundef 1)
  %51 = load ptr, ptr %5, align 8, !tbaa !12
  %52 = getelementptr inbounds nuw %struct.dt_imageio_jpeg_t, ptr %51, i32 0, i32 4
  %53 = getelementptr inbounds nuw %struct.jpeg_decompress_struct, ptr %52, i32 0, i32 11
  store i32 7, ptr %53, align 8, !tbaa !64
  %54 = load ptr, ptr %5, align 8, !tbaa !12
  %55 = getelementptr inbounds nuw %struct.dt_imageio_jpeg_t, ptr %54, i32 0, i32 4
  %56 = getelementptr inbounds nuw %struct.jpeg_decompress_struct, ptr %55, i32 0, i32 29
  store i32 4, ptr %56, align 8, !tbaa !65
  %57 = load ptr, ptr %5, align 8, !tbaa !12
  %58 = getelementptr inbounds nuw %struct.dt_imageio_jpeg_t, ptr %57, i32 0, i32 4
  %59 = getelementptr inbounds nuw %struct.jpeg_decompress_struct, ptr %58, i32 0, i32 7
  %60 = load i32, ptr %59, align 8, !tbaa !66
  %61 = load ptr, ptr %5, align 8, !tbaa !12
  %62 = getelementptr inbounds nuw %struct.dt_imageio_jpeg_t, ptr %61, i32 0, i32 0
  store i32 %60, ptr %62, align 8, !tbaa !67
  %63 = load ptr, ptr %5, align 8, !tbaa !12
  %64 = getelementptr inbounds nuw %struct.dt_imageio_jpeg_t, ptr %63, i32 0, i32 4
  %65 = getelementptr inbounds nuw %struct.jpeg_decompress_struct, ptr %64, i32 0, i32 8
  %66 = load i32, ptr %65, align 4, !tbaa !68
  %67 = load ptr, ptr %5, align 8, !tbaa !12
  %68 = getelementptr inbounds nuw %struct.dt_imageio_jpeg_t, ptr %67, i32 0, i32 1
  store i32 %66, ptr %68, align 4, !tbaa !69
  store i32 0, ptr %3, align 4
  store i32 1, ptr %7, align 4
  br label %69

69:                                               ; preds = %36, %29
  call void @llvm.lifetime.end.p0(i64 368, ptr %6) #9
  br label %70

70:                                               ; preds = %69, %16
  %71 = load i32, ptr %3, align 4
  ret i32 %71
}