; Function Attrs: nounwind uwtable
define range(i32 0, 2) i32 @dt_imageio_jpeg_read_header(ptr noundef readonly captures(none) %0, ptr noundef initializes((1344, 1352)) %1) local_unnamed_addr #0 {
  %3 = alloca %struct.dt_imageio_jpeg_error_mgr, align 8
  %4 = call noalias ptr @fopen(ptr noundef %0, ptr noundef nonnull @.str.2)
  %5 = getelementptr inbounds nuw i8, ptr %1, i64 1344
  store ptr %4, ptr %5, align 8, !tbaa !95
  %.not = icmp eq ptr %4, null
  br i1 %.not, label %25, label %6

6:                                                ; preds = %2
  call void @llvm.lifetime.start.p0(i64 368, ptr nonnull %3) #14
  %7 = call ptr @jpeg_std_error(ptr noundef nonnull %3) #14
  %8 = getelementptr inbounds nuw i8, ptr %1, i64 104
  store ptr %7, ptr %8, align 8, !tbaa !55
  store ptr @dt_imageio_jpeg_error_exit, ptr %3, align 8, !tbaa !56
  %9 = getelementptr inbounds nuw i8, ptr %3, i64 168
  %10 = call i32 @_setjmp(ptr noundef nonnull %9) #15
  %.not18 = icmp eq i32 %10, 0
  br i1 %.not18, label %14, label %11

11:                                               ; preds = %6
  call void @jpeg_destroy_decompress(ptr noundef nonnull %8) #14
  %12 = load ptr, ptr %5, align 8, !tbaa !95
  %13 = call i32 @fclose(ptr noundef %12)
  br label %24

14:                                               ; preds = %6
  call void @jpeg_CreateDecompress(ptr noundef nonnull %8, i32 noundef 80, i64 noundef 656) #14
  %15 = load ptr, ptr %5, align 8, !tbaa !95
  call void @jpeg_stdio_src(ptr noundef nonnull %8, ptr noundef %15) #14
  call void @jpeg_save_markers(ptr noundef nonnull %8, i32 noundef 225, i32 noundef 65535) #14
  call void @jpeg_save_markers(ptr noundef nonnull %8, i32 noundef 226, i32 noundef 65535) #14
  %16 = call i32 @jpeg_read_header(ptr noundef nonnull %8, i32 noundef 1) #14
  %17 = getelementptr inbounds nuw i8, ptr %1, i64 168
  store i32 7, ptr %17, align 8, !tbaa !60
  %18 = getelementptr inbounds nuw i8, ptr %1, i64 248
  store i32 4, ptr %18, align 8, !tbaa !61
  %19 = getelementptr inbounds nuw i8, ptr %1, i64 152
  %20 = load i32, ptr %19, align 8, !tbaa !62
  store i32 %20, ptr %1, align 8, !tbaa !63
  %21 = getelementptr inbounds nuw i8, ptr %1, i64 156
  %22 = load i32, ptr %21, align 4, !tbaa !64
  %23 = getelementptr inbounds nuw i8, ptr %1, i64 4
  store i32 %22, ptr %23, align 4, !tbaa !65
  br label %24

24:                                               ; preds = %14, %11
  %.1 = phi i32 [ 1, %11 ], [ 0, %14 ]
  call void @llvm.lifetime.end.p0(i64 368, ptr nonnull %3) #14
  br label %25

25:                                               ; preds = %2, %24
  %.0 = phi i32 [ %.1, %24 ], [ 1, %2 ]
  ret i32 %.0
}